; Function Attrs: nofree norecurse nosync nounwind memory(argmem: readwrite) uwtable
define hidden void @WebPYuv444ToBgra_C(ptr noundef readonly captures(none) %0, ptr noundef readonly captures(none) %1, ptr noundef readonly captures(none) %2, ptr noundef writeonly captures(none) %3, i32 noundef %4) #1 {
  %6 = icmp sgt i32 %4, 0
  br i1 %6, label %.lr.ph.preheader, label %._crit_edge

.lr.ph.preheader:                                 ; preds = %5
  %wide.trip.count = zext nneg i32 %4 to i64
  br label %.lr.ph

.lr.ph:                                           ; preds = %.lr.ph.preheader, %.lr.ph
  %indvars.iv = phi i64 [ 0, %.lr.ph.preheader ], [ %indvars.iv.next, %.lr.ph ]
  %7 = getelementptr inbounds nuw i8, ptr %0, i64 %indvars.iv
  %8 = load i8, ptr %7, align 1
  %9 = getelementptr inbounds nuw i8, ptr %1, i64 %indvars.iv
  %10 = load i8, ptr %9, align 1
  %11 = getelementptr inbounds nuw i8, ptr %2, i64 %indvars.iv
  %12 = load i8, ptr %11, align 1
  %13 = shl nsw i64 %indvars.iv, 2
  %14 = getelementptr inbounds nuw i8, ptr %3, i64 %13
  %15 = zext i8 %8 to i32
  %16 = zext i8 %10 to i32
  %17 = zext i8 %12 to i32
  %18 = mul nuw nsw i32 %15, 19077
  %19 = lshr i32 %18, 8
  %20 = mul nuw nsw i32 %16, 33050
  %21 = lshr i32 %20, 8
  %22 = add nuw nsw i32 %21, %19
  %23 = add nsw i32 %22, -17685
  %24 = icmp ult i32 %23, 16384
  %25 = lshr i32 %23, 6
  %26 = icmp samesign ult i32 %22, 17685
  %27 = select i1 %26, i32 0, i32 255
  %28 = select i1 %24, i32 %25, i32 %27
  %29 = trunc i32 %28 to i8
  store i8 %29, ptr %14, align 1
  %30 = mul nuw nsw i32 %16, 6419
  %31 = lshr i32 %30, 8
  %32 = mul nuw nsw i32 %17, 13320
  %33 = lshr i32 %32, 8
  %34 = add nuw nsw i32 %31, %33
  %35 = sub nsw i32 %19, %34
  %36 = add nsw i32 %35, 8708
  %37 = icmp ult i32 %36, 16384
  %38 = lshr i32 %36, 6
  %39 = icmp slt i32 %35, -8708
  %40 = select i1 %39, i32 0, i32 255
  %41 = select i1 %37, i32 %38, i32 %40
  %42 = trunc i32 %41 to i8
  %43 = getelementptr inbounds nuw i8, ptr %14, i64 1
  store i8 %42, ptr %43, align 1
  %44 = mul nuw nsw i32 %17, 26149
  %45 = lshr i32 %44, 8
  %46 = add nuw nsw i32 %45, %19
  %47 = add nsw i32 %46, -14234
  %48 = icmp ult i32 %47, 16384
  %49 = lshr i32 %47, 6
  %50 = icmp samesign ult i32 %46, 14234
  %51 = select i1 %50, i32 0, i32 255
  %52 = select i1 %48, i32 %49, i32 %51
  %53 = trunc i32 %52 to i8
  %54 = getelementptr inbounds nuw i8, ptr %14, i64 2
  store i8 %53, ptr %54, align 1
  %55 = getelementptr inbounds nuw i8, ptr %14, i64 3
  store i8 -1, ptr %55, align 1
  %indvars.iv.next = add nuw nsw i64 %indvars.iv, 1
  %exitcond.not = icmp eq i64 %indvars.iv.next, %wide.trip.count
  br i1 %exitcond.not, label %._crit_edge, label %.lr.ph, !llvm.loop !6

._crit_edge:                                      ; preds = %.lr.ph, %5
  ret void
}